Certificate:
    Data:
        Version: 3 (0x2)
        Serial Number: 1 (0x1)
        Signature Algorithm: sha256WithRSAEncryption
        Issuer: C=CN, ST=Guangdong, L=Zhuhai, O=WeJudge Team, CN=WeJudge Root Certificate Authority/emailAddress=webmaster@wejudge.net
        Validity
            Not Before: Oct 15 08:31:12 2020 GMT
            Not After : Oct 14 08:31:12 2025 GMT
        Subject: C=CN, ST=Guangdong, O=WeJudge Team, OU=Deer-executor Development, CN=Deer-executor Result Signature (only for test!)/emailAddress=deer-executor@wejudge.net
        Subject Public Key Info:
            Public Key Algorithm: rsaEncryption
                RSA Public-Key: (2048 bit)
                Modulus:
                    00:e3:20:67:7b:a7:82:b6:6b:66:0f:f8:94:3a:fa:
                    1d:53:67:7e:79:e4:b9:9d:68:e6:4d:ca:da:1f:24:
                    6d:89:77:e7:c6:fb:b9:a7:bf:14:d2:9e:25:d5:46:
                    bd:31:c6:c3:13:43:11:6f:61:4a:dd:cf:d2:89:cf:
                    36:94:a9:f1:d9:4b:be:5c:fa:a3:e2:da:0d:1b:91:
                    0e:00:e5:22:13:62:45:f2:db:77:1f:a7:40:8b:da:
                    8a:8b:36:a1:97:3a:15:0f:69:8e:04:e6:c8:ba:2c:
                    e4:50:c5:33:3e:19:66:6d:9e:ec:b3:d5:c4:10:8e:
                    29:11:70:76:ad:81:12:38:17:f1:b8:c6:7f:1d:c6:
                    f1:c8:06:cc:d4:31:36:ab:96:4c:6a:dc:e9:4e:24:
                    21:2a:02:cc:8f:fb:fd:0b:58:e7:fb:ac:3b:37:92:
                    49:8b:dd:c7:c0:14:ec:51:b7:d4:33:72:f1:e0:26:
                    4f:1e:c3:3c:b2:a2:a4:d2:ba:55:b6:1c:e5:35:38:
                    65:05:3e:63:82:48:74:db:58:1e:9b:84:76:b7:40:
                    14:35:d1:56:ec:ac:06:43:50:8f:67:8b:4f:e7:0c:
                    f7:2b:a3:0e:d2:1b:0b:ee:07:9c:41:b7:c1:a1:5a:
                    d5:5f:c5:63:ff:68:80:65:64:5a:f1:b5:77:70:d7:
                    3f:4d
                Exponent: 65537 (0x10001)
        X509v3 extensions:
            X509v3 Basic Constraints: 
                CA:FALSE
            Netscape Comment: 
                OpenSSL Generated Certificate
            X509v3 Subject Key Identifier: 
                FD:F7:75:81:90:CF:F8:52:14:E2:78:B1:43:37:3B:60:82:32:6F:3D
            X509v3 Authority Key Identifier: 
                DirName:/C=CN/ST=Guangdong/L=Zhuhai/O=WeJudge Team/CN=WeJudge Root Certificate Authority/emailAddress=webmaster@wejudge.net
                serial:0C:09:3A:E5:59:04:7C:AB:90:87:82:10:89:2B:4C:30:25:7A:63:5B

    Signature Algorithm: sha256WithRSAEncryption
         95:4e:6a:74:15:23:a0:db:7e:f0:bb:60:99:1f:55:02:44:57:
         a9:48:6c:9a:0d:df:0d:15:28:66:58:d7:fd:d0:da:9b:77:cd:
         24:5c:a8:b9:d9:67:71:ef:7f:58:86:bd:74:58:89:27:8b:ac:
         df:29:b8:9a:ff:2e:f2:07:e6:2a:25:2e:9a:37:03:78:d8:2a:
         ff:6b:5b:fb:03:53:3b:2f:83:0c:49:f4:46:4a:07:b1:0b:dc:
         05:dd:3d:e1:5b:7e:d5:ca:b5:ef:29:a4:82:68:2f:97:86:df:
         f1:a6:7a:03:3e:56:90:e3:12:17:5b:da:11:11:16:44:4c:ee:
         6a:7f:25:a8:42:62:a0:e1:0f:e8:cc:00:1e:71:64:e1:74:cb:
         40:0c:25:b0:f2:f2:8f:3a:f9:1f:d2:ad:33:da:5e:de:8d:c7:
         7f:10:1d:c2:f8:3e:bb:47:46:bf:db:8a:7f:40:d7:4e:c2:db:
         f0:28:01:c1:4f:12:75:1c:fb:9d:24:72:3e:ca:d2:97:89:d5:
         9b:2e:11:f4:b9:b9:45:3b:9f:f4:34:e6:af:c6:2d:09:5f:19:
         7d:0a:ca:c2:c4:04:f4:48:65:1b:08:1c:54:50:53:dc:73:03:
         25:b2:bf:cc:0c:bc:16:36:21:47:b7:76:22:3d:cb:81:25:0b:
         48:cd:58:d8:14:61:e6:4b:ba:a3:f6:b2:aa:7c:03:cb:d9:e7:
         c3:29:49:ea:db:c3:9f:89:5e:51:b4:29:9e:c9:84:fe:21:00:
         c4:c2:d7:48:f6:99:87:43:3f:62:de:b7:9e:97:ba:41:51:6b:
         ac:52:e0:06:a8:8e:9e:72:40:bd:0a:6c:41:d2:3a:47:bf:dd:
         56:21:a5:f1:9a:da:d3:00:21:ae:af:3e:92:5d:9f:03:72:fb:
         64:b8:4c:11:a3:bd:68:f3:55:bf:68:6a:fe:51:70:fd:9c:aa:
         61:f5:05:28:e7:68:16:d8:fe:d3:94:64:44:18:94:b5:17:e0:
         13:5b:56:08:65:c2:40:37:65:7b:1c:6d:66:29:50:d5:38:e8:
         40:5f:f5:4a:b0:60:82:7e:15:b5:a5:b3:f7:15:0f:b2:f7:cf:
         bc:60:8f:90:3f:82:ef:bf:e5:d5:a3:f2:69:b3:9f:50:de:38:
         69:ed:dd:c6:fd:eb:95:f9:bb:ab:ea:fa:65:0f:32:24:7a:83:
         1a:82:54:66:ea:65:92:a1:eb:64:25:ae:02:94:ca:35:52:3a:
         3d:76:62:e0:96:66:66:1a:23:7f:4e:83:f6:22:ca:5c:e7:d7:
         a0:52:ba:a6:41:68:86:c3:ec:88:4f:aa:41:52:58:37:fc:11:
         0d:f9:e9:1c:3b:b5:4c:f3
-----BEGIN CERTIFICATE-----
MIIGADCCA+igAwIBAgIBATANBgkqhkiG9w0BAQsFADCBnDELMAkGA1UEBhMCQ04x
EjAQBgNVBAgMCUd1YW5nZG9uZzEPMA0GA1UEBwwGWmh1aGFpMRUwEwYDVQQKDAxX
ZUp1ZGdlIFRlYW0xKzApBgNVBAMMIldlSnVkZ2UgUm9vdCBDZXJ0aWZpY2F0ZSBB
dXRob3JpdHkxJDAiBgkqhkiG9w0BCQEWFXdlYm1hc3RlckB3ZWp1ZGdlLm5ldDAe
Fw0yMDEwMTUwODMxMTJaFw0yNTEwMTQwODMxMTJaMIHAMQswCQYDVQQGEwJDTjES
MBAGA1UECAwJR3Vhbmdkb25nMRUwEwYDVQQKDAxXZUp1ZGdlIFRlYW0xIjAgBgNV
BAsMGURlZXItZXhlY3V0b3IgRGV2ZWxvcG1lbnQxODA2BgNVBAMML0RlZXItZXhl
Y3V0b3IgUmVzdWx0IFNpZ25hdHVyZSAob25seSBmb3IgdGVzdCEpMSgwJgYJKoZI
hvcNAQkBFhlkZWVyLWV4ZWN1dG9yQHdlanVkZ2UubmV0MIIBIjANBgkqhkiG9w0B
AQEFAAOCAQ8AMIIBCgKCAQEA4yBne6eCtmtmD/iUOvodU2d+eeS5nWjmTcraHyRt
iXfnxvu5p78U0p4l1Ua9McbDE0MRb2FK3c/Sic82lKnx2Uu+XPqj4toNG5EOAOUi
E2JF8tt3H6dAi9qKizahlzoVD2mOBObIuizkUMUzPhlmbZ7ss9XEEI4pEXB2rYES
OBfxuMZ/HcbxyAbM1DE2q5ZMatzpTiQhKgLMj/v9C1jn+6w7N5JJi93HwBTsUbfU
M3Lx4CZPHsM8sqKk0rpVthzlNThlBT5jgkh021gem4R2t0AUNdFW7KwGQ1CPZ4tP
5wz3K6MO0hsL7gecQbfBoVrVX8Vj/2iAZWRa8bV3cNc/TQIDAQABo4IBJTCCASEw
CQYDVR0TBAIwADAsBglghkgBhvhCAQ0EHxYdT3BlblNTTCBHZW5lcmF0ZWQgQ2Vy
dGlmaWNhdGUwHQYDVR0OBBYEFP33dYGQz/hSFOJ4sUM3O2CCMm89MIHGBgNVHSME
gb4wgbuhgaKkgZ8wgZwxCzAJBgNVBAYTAkNOMRIwEAYDVQQIDAlHdWFuZ2Rvbmcx
DzANBgNVBAcMBlpodWhhaTEVMBMGA1UECgwMV2VKdWRnZSBUZWFtMSswKQYDVQQD
DCJXZUp1ZGdlIFJvb3QgQ2VydGlmaWNhdGUgQXV0aG9yaXR5MSQwIgYJKoZIhvcN
AQkBFhV3ZWJtYXN0ZXJAd2VqdWRnZS5uZXSCFAwJOuVZBHyrkIeCEIkrTDAlemNb
MA0GCSqGSIb3DQEBCwUAA4ICAQCVTmp0FSOg237wu2CZH1UCRFepSGyaDd8NFShm
WNf90Nqbd80kXKi52Wdx739Yhr10WIkni6zfKbia/y7yB+YqJS6aNwN42Cr/a1v7
A1M7L4MMSfRGSgexC9wF3T3hW37VyrXvKaSCaC+Xht/xpnoDPlaQ4xIXW9oRERZE
TO5qfyWoQmKg4Q/ozAAecWThdMtADCWw8vKPOvkf0q0z2l7ejcd/EB3C+D67R0a/
24p/QNdOwtvwKAHBTxJ1HPudJHI+ytKXidWbLhH0ublFO5/0NOavxi0JXxl9CsrC
xAT0SGUbCBxUUFPccwMlsr/MDLwWNiFHt3YiPcuBJQtIzVjYFGHmS7qj9rKqfAPL
2efDKUnq28OfiV5RtCmeyYT+IQDEwtdI9pmHQz9i3reel7pBUWusUuAGqI6eckC9
CmxB0jpHv91WIaXxmtrTACGurz6SXZ8DcvtkuEwRo71o81W/aGr+UXD9nKph9QUo
52gW2P7TlGREGJS1F+ATW1YIZcJAN2V7HG1mKVDVOOhAX/VKsGCCfhW1pbP3FQ+y
98+8YI+QP4Lvv+XVo/Jps59Q3jhp7d3G/euV+bur6vplDzIkeoMaglRm6mWSoetk
Ja4ClMo1Ujo9dmLglmZmGiN/ToP2Ispc59egUrqmQWiGw+yIT6pBUlg3/BEN+ekc
O7VM8w==
-----END CERTIFICATE-----
